target datalayout = "e-m:e-p270:32:32-p271:32:32-p272:64:64-i64:64-i128:128-f80:128-n8:16:32:64-S128"
target triple = "x86_64-pc-linux-gnu"

@rpenv = internal global ptr null, align 8

; Function Attrs: nounwind uwtable
define dso_local void @ic_init_custom_malloc(ptr noundef %0, ptr noundef %1, ptr noundef %2) #0 {
  %4 = alloca ptr, align 8
  %5 = alloca ptr, align 8
  %6 = alloca ptr, align 8
  store ptr %0, ptr %4, align 8, !tbaa !51
  store ptr %1, ptr %5, align 8, !tbaa !51
  store ptr %2, ptr %6, align 8, !tbaa !51
  %7 = load ptr, ptr @rpenv, align 8, !tbaa !65
  %8 = icmp ne ptr %7, null
  br i1 %8, label %9, label %15

9:                                                ; preds = %3
  %10 = load ptr, ptr @rpenv, align 8, !tbaa !65
  call void @ic_env_free(ptr noundef %10)
  %11 = load ptr, ptr %4, align 8, !tbaa !51
  %12 = load ptr, ptr %5, align 8, !tbaa !51
  %13 = load ptr, ptr %6, align 8, !tbaa !51
  %14 = call ptr @ic_env_create(ptr noundef %11, ptr noundef %12, ptr noundef %13)
  store ptr %14, ptr @rpenv, align 8, !tbaa !65
  br label %25

15:                                               ; preds = %3
  %16 = load ptr, ptr %4, align 8, !tbaa !51
  %17 = load ptr, ptr %5, align 8, !tbaa !51
  %18 = load ptr, ptr %6, align 8, !tbaa !51
  %19 = call ptr @ic_env_create(ptr noundef %16, ptr noundef %17, ptr noundef %18)
  store ptr %19, ptr @rpenv, align 8, !tbaa !65
  %20 = load ptr, ptr @rpenv, align 8, !tbaa !65
  %21 = icmp ne ptr %20, null
  br i1 %21, label %22, label %24

22:                                               ; preds = %15
  %23 = call i32 @atexit(ptr noundef @ic_atexit) #13
  br label %24

24:                                               ; preds = %22, %15
  br label %25

25:                                               ; preds = %24, %9
  ret void
}