; Function Attrs: nounwind uwtable
define dso_local void @ic_init_custom_malloc(ptr noundef %0, ptr noundef %1, ptr noundef %2) local_unnamed_addr #0 {
  %4 = load ptr, ptr @rpenv, align 8, !tbaa !108
  %.not = icmp eq ptr %4, null
  br i1 %.not, label %7, label %5

5:                                                ; preds = %3
  tail call fastcc void @ic_env_free(ptr noundef %4)
  %6 = tail call fastcc ptr @ic_env_create(ptr noundef %0, ptr noundef %1, ptr noundef %2)
  store ptr %6, ptr @rpenv, align 8, !tbaa !108
  br label %11

7:                                                ; preds = %3
  %8 = tail call fastcc ptr @ic_env_create(ptr noundef %0, ptr noundef %1, ptr noundef %2)
  store ptr %8, ptr @rpenv, align 8, !tbaa !108
  %.not6 = icmp eq ptr %8, null
  br i1 %.not6, label %11, label %9

9:                                                ; preds = %7
  %10 = tail call i32 @atexit(ptr noundef nonnull @ic_atexit) #32
  br label %11

11:                                               ; preds = %7, %9, %5
  ret void
}